; Function Attrs: mustprogress nofree nounwind willreturn uwtable
define noalias noundef ptr @stream_clone(ptr noundef readonly captures(none) %0) local_unnamed_addr #11 {
  %2 = tail call noalias dereferenceable_or_null(40) ptr @malloc(i64 noundef 40) #14
  %.not = icmp eq ptr %2, null
  br i1 %.not, label %4, label %3

3:                                                ; preds = %1
  tail call void @llvm.memcpy.p0.p0.i64(ptr noundef nonnull align 8 dereferenceable(40) %2, ptr noundef nonnull align 8 dereferenceable(40) %0, i64 40, i1 false)
  br label %4

4:                                                ; preds = %3, %1
  ret ptr %2
}